ccopy_reg
_reconstructor
p0
(crequests.cookies
RequestsCookieJar
p1
c__builtin__
object
p2
Ntp3
Rp4
(dp5
V_policy
p6
g0
(ccookielib
DefaultCookiePolicy
p7
g2
Ntp8
Rp9
(dp10
V_allowed_domains
p11
NsVstrict_domain
p12
I00
sV_blocked_domains
p13
(tsVstrict_rfc2965_unverifiable
p14
I01
sV_now
p15
L1531475250L
sVstrict_ns_set_initial_dollar
p16
I00
sVhide_cookie2
p17
I00
sVstrict_ns_set_path
p18
I00
sVrfc2965
p19
I00
sVstrict_ns_unverifiable
p20
I00
sVrfc2109_as_netscape
p21
NsVnetscape
p22
I01
sVstrict_ns_domain
p23
L0L
sbsg15
L1531475250L
sV_cookies
p24
(dp25
V
p26
(dp27
V/
p28
(dp29
Vd_c0
p30
g0
(ccookielib
Cookie
p31
g2
Ntp32
Rp33
(dp34
Vcomment
p35
NsVport_specified
p36
I00
sVrfc2109
p37
I00
sVpath
p38
g28
sVsecure
p39
I00
sVversion
p40
L0L
sVdomain_specified
p41
I00
sVpath_specified
p42
I01
sVdomain_initial_dot
p43
I00
sVname
p44
g30
sVport
p45
NsVcomment_url
p46
NsVvalue
p47
V"AHBn5CbW5A2PThIF0qsG9kU2zTxFyFxiJZ4=|1531475259"
p48
sVdomain
p49
g26
sVdiscard
p50
I01
sVexpires
p51
NsV_rest
p52
(dp53
VHttpOnly
p54
NssbsVtgw_l7_route
p55
g0
(g31
g2
Ntp56
Rp57
(dp58
g35
Nsg36
I00
sg37
I00
sg38
g28
sg39
I00
sg40
L0L
sg41
I00
sg42
I01
sg43
I00
sg44
g55
sg45
Nsg46
Nsg47
V9553ebf607071b8b9dd310a140c349c5
p59
sg49
g26
sg50
I01
sg51
Nsg52
(dp60
g54
NssbsVz_c0
p61
g0
(g31
g2
Ntp62
Rp63
(dp64
g35
Nsg36
I00
sg37
I00
sg38
g28
sg39
I00
sg40
L0L
sg41
I00
sg42
I01
sg43
I00
sg44
g61
sg45
Nsg46
Nsg47
V"2|1:0|10:1531475272|4:z_c0|92:Mi4xc21DN0NnQUFBQUFBY0dma0p0YmtEU1lBQUFCZ0FsVk5TTU0xWEFCZndUUnB6MmdCbGhMaU5tUmVadFdVMGJ1OVV3|3abd504038eac297b838a049376c5eae4f200363a09f57cad4fa60504da62d92"
p65
sg49
g26
sg50
I01
sg51
Nsg52
(dp66
g54
NssbsVcapsion_ticket
p67
g0
(g31
g2
Ntp68
Rp69
(dp70
g35
Nsg36
I00
sg37
I00
sg38
g28
sg39
I00
sg40
L0L
sg41
I00
sg42
I01
sg43
I00
sg44
g67
sg45
Nsg46
Nsg47
V"2|1:0|10:1531475261|14:capsion_ticket|44:OWE5MjgxYWRkYTRjNDFhZTgyMDVlMGZiYTIyZDkxYjc=|9c64c497b125b7a7c7cbf1a15c9170dc799f89bda25ba826041b89eba754193e"
p71
sg49
g26
sg50
I01
sg51
Nsg52
(dp72
g54
NssbsV_zap
p73
g0
(g31
g2
Ntp74
Rp75
(dp76
g35
Nsg36
I00
sg37
I00
sg38
g28
sg39
I00
sg40
L0L
sg41
I00
sg42
I01
sg43
I00
sg44
g73
sg45
Nsg46
Nsg47
V566f439d-2751-4e25-94ef-fbe9adf96f1e
p77
sg49
g26
sg50
I01
sg51
Nsg52
(dp78
g54
NssbsV_xsrf
p79
g0
(g31
g2
Ntp80
Rp81
(dp82
g35
Nsg36
I00
sg37
I00
sg38
g28
sg39
I00
sg40
L0L
sg41
I00
sg42
I01
sg43
I00
sg44
g79
sg45
Nsg46
Nsg47
Vf6abafe7-dcb9-4ee6-88aa-e4f00655ebe2
p83
sg49
g26
sg50
I01
sg51
Nsg52
(dp84
g54
NssbsVq_c1
p85
g0
(g31
g2
Ntp86
Rp87
(dp88
g35
Nsg36
I00
sg37
I00
sg38
g28
sg39
I00
sg40
L0L
sg41
I00
sg42
I01
sg43
I00
sg44
g85
sg45
Nsg46
Nsg47
V83a9d7cb7d9549cea4c940c4c3df0dde|1531475259000|1531475259000
p89
sg49
g26
sg50
I01
sg51
Nsg52
(dp90
g54
NssbsssVwww.zhihu.com
p91
(dp92
g28
(dp93
Vtgw_l7_route
p94
g0
(g31
g2
Ntp95
Rp96
(dp97
g35
Nsg36
I00
sg37
I00
sg38
g28
sg39
I00
sg40
L0L
sg41
I00
sg42
I01
sg43
I00
sg44
g94
sg45
Nsg46
Nsg47
V29b95235203ffc15742abb84032d7e75
p98
sg49
g91
sg50
I00
sg51
L1531476148L
sg52
(dp99
sbsssV.zhihu.com
p100
(dp101
g28
(dp102
Vd_c0
p103
g0
(g31
g2
Ntp104
Rp105
(dp106
g35
Nsg36
I00
sg37
I00
sg38
g28
sg39
I00
sg40
L0L
sg41
I01
sg42
I01
sg43
I00
sg44
g103
sg45
Nsg46
Nsg47
V"AICkcxzW5A2PTq_IcpmhGxWAWkJAsCNetig=|1531475248"
p107
sg49
V.zhihu.com
p108
sg50
I00
sg51
L1626083248L
sg52
(dp109
sbsV_xsrf
p110
g0
(g31
g2
Ntp111
Rp112
(dp113
g35
Nsg36
I00
sg37
I00
sg38
g28
sg39
I00
sg40
L0L
sg41
I01
sg42
I01
sg43
I01
sg44
g110
sg45
Nsg46
Nsg47
V8bb57a53-f3ee-41d0-af33-8cac17e89c44
p114
sg49
g100
sg50
I01
sg51
Nsg52
(dp115
sbsVq_c1
p116
g0
(g31
g2
Ntp117
Rp118
(dp119
g35
Nsg36
I00
sg37
I00
sg38
g28
sg39
I00
sg40
L0L
sg41
I01
sg42
I01
sg43
I00
sg44
g116
sg45
Nsg46
Nsg47
Vadfc35d706d3424fb0dca069ebf4bd47|1531475248000|1531475248000
p120
sg49
V.zhihu.com
p121
sg50
I00
sg51
L1626083248L
sg52
(dp122
sbssssb.